#include <math.h>
#include <stdio.h>
#include <stdlib.h>
#include <string.h>

int main(){
 int a;
 scanf("%d",&a);
 int sum=0;
 int i=0;
 while(i<=a)
 {
	 if((i%7==0||i%10==7||i/10==7)==0)
	 sum=sum+i*i;
	 i++;
 }
 printf("%d",sum);
 return 0;
}